target datalayout = "e-m:e-p270:32:32-p271:32:32-p272:64:64-i64:64-i128:128-f80:128-n8:16:32:64-S128"
target triple = "x86_64-pc-linux-gnu"

%"class.std::stack" = type { %"class.std::deque" }
%"class.std::deque" = type { %"class.std::_Deque_base" }
%"class.std::_Deque_base" = type { %"struct.std::_Deque_base<Json::Value *, std::allocator<Json::Value *>>::_Deque_impl" }
%"struct.std::_Deque_base<Json::Value *, std::allocator<Json::Value *>>::_Deque_impl" = type { %"struct.std::_Deque_base<Json::Value *, std::allocator<Json::Value *>>::_Deque_impl_data" }
%"struct.std::_Deque_base<Json::Value *, std::allocator<Json::Value *>>::_Deque_impl_data" = type { ptr, i64, %"struct.std::_Deque_iterator", %"struct.std::_Deque_iterator" }
%"struct.std::_Deque_iterator" = type { ptr, ptr, ptr, ptr }
%"class.std::__cxx11::basic_string" = type { %"struct.std::__cxx11::basic_string<char>::_Alloc_hider", i64, %union.anon }
%"struct.std::__cxx11::basic_string<char>::_Alloc_hider" = type { ptr }
%union.anon = type { i64, [8 x i8] }
%"class.Json::OurFeatures" = type { i8, i8, i8, i8, i8, i8, i8, i8, i8, i8, i64 }
%"class.Json::OurReader" = type <{ %"class.std::stack", %"class.std::deque.17", %"class.std::__cxx11::basic_string", ptr, ptr, ptr, ptr, ptr, i8, [7 x i8], %"class.std::__cxx11::basic_string", %"class.Json::OurFeatures", i8, [7 x i8] }>
%"class.std::deque.17" = type { %"class.std::_Deque_base.18" }
%"class.std::_Deque_base.18" = type { %"struct.std::_Deque_base<Json::OurReader::ErrorInfo, std::allocator<Json::OurReader::ErrorInfo>>::_Deque_impl" }
%"struct.std::_Deque_base<Json::OurReader::ErrorInfo, std::allocator<Json::OurReader::ErrorInfo>>::_Deque_impl" = type { %"struct.std::_Deque_base<Json::OurReader::ErrorInfo, std::allocator<Json::OurReader::ErrorInfo>>::_Deque_impl_data" }
%"struct.std::_Deque_base<Json::OurReader::ErrorInfo, std::allocator<Json::OurReader::ErrorInfo>>::_Deque_impl_data" = type { ptr, i64, %"struct.std::_Deque_iterator.22", %"struct.std::_Deque_iterator.22" }
%"struct.std::_Deque_iterator.22" = type { ptr, ptr, ptr, ptr }

; Function Attrs: mustprogress uwtable
define dso_local noundef zeroext i1 @_ZN4Json9OurReader19readCppStyleCommentEv(ptr noundef nonnull align 8 dereferenceable(297) %0) #5 align 2 {
  %2 = alloca ptr, align 8
  %3 = alloca i8, align 1
  store ptr %0, ptr %2, align 8
  %4 = load ptr, ptr %2, align 8
  br label %5

5:                                                ; preds = %36, %1
  %6 = getelementptr inbounds %"class.Json::OurReader", ptr %4, i32 0, i32 5
  %7 = load ptr, ptr %6, align 8
  %8 = getelementptr inbounds %"class.Json::OurReader", ptr %4, i32 0, i32 4
  %9 = load ptr, ptr %8, align 8
  %10 = icmp ne ptr %7, %9
  br i1 %10, label %11, label %37

11:                                               ; preds = %5
  %12 = call noundef signext i8 @_ZN4Json9OurReader11getNextCharEv(ptr noundef nonnull align 8 dereferenceable(297) %4)
  store i8 %12, ptr %3, align 1
  %13 = load i8, ptr %3, align 1
  %14 = sext i8 %13 to i32
  %15 = icmp eq i32 %14, 10
  br i1 %15, label %16, label %17

16:                                               ; preds = %11
  br label %37

17:                                               ; preds = %11
  %18 = load i8, ptr %3, align 1
  %19 = sext i8 %18 to i32
  %20 = icmp eq i32 %19, 13
  br i1 %20, label %21, label %36

21:                                               ; preds = %17
  %22 = getelementptr inbounds %"class.Json::OurReader", ptr %4, i32 0, i32 5
  %23 = load ptr, ptr %22, align 8
  %24 = getelementptr inbounds %"class.Json::OurReader", ptr %4, i32 0, i32 4
  %25 = load ptr, ptr %24, align 8
  %26 = icmp ne ptr %23, %25
  br i1 %26, label %27, label %35

27:                                               ; preds = %21
  %28 = getelementptr inbounds %"class.Json::OurReader", ptr %4, i32 0, i32 5
  %29 = load ptr, ptr %28, align 8
  %30 = load i8, ptr %29, align 1
  %31 = sext i8 %30 to i32
  %32 = icmp eq i32 %31, 10
  br i1 %32, label %33, label %35

33:                                               ; preds = %27
  %34 = call noundef signext i8 @_ZN4Json9OurReader11getNextCharEv(ptr noundef nonnull align 8 dereferenceable(297) %4)
  br label %35

35:                                               ; preds = %33, %27, %21
  br label %37

36:                                               ; preds = %17
  br label %5, !llvm.loop !42

37:                                               ; preds = %35, %16, %5
  ret i1 true
}

; Function Attrs: mustprogress uwtable
define dso_local noundef zeroext i1 @_ZN4Json9OurReader17readCStyleCommentEPb(ptr noundef nonnull align 8 dereferenceable(297) %0, ptr noundef %1) #5 align 2 {
  %3 = alloca ptr, align 8
  %4 = alloca ptr, align 8
  %5 = alloca i8, align 1
  store ptr %0, ptr %3, align 8
  store ptr %1, ptr %4, align 8
  %6 = load ptr, ptr %3, align 8
  %7 = load ptr, ptr %4, align 8
  store i8 0, ptr %7, align 1
  br label %8

8:                                                ; preds = %33, %2
  %9 = getelementptr inbounds %"class.Json::OurReader", ptr %6, i32 0, i32 5
  %10 = load ptr, ptr %9, align 8
  %11 = getelementptr inbounds i8, ptr %10, i64 1
  %12 = getelementptr inbounds %"class.Json::OurReader", ptr %6, i32 0, i32 4
  %13 = load ptr, ptr %12, align 8
  %14 = icmp ult ptr %11, %13
  br i1 %14, label %15, label %34

15:                                               ; preds = %8
  %16 = call noundef signext i8 @_ZN4Json9OurReader11getNextCharEv(ptr noundef nonnull align 8 dereferenceable(297) %6)
  store i8 %16, ptr %5, align 1
  %17 = load i8, ptr %5, align 1
  %18 = sext i8 %17 to i32
  %19 = icmp eq i32 %18, 42
  br i1 %19, label %20, label %27

20:                                               ; preds = %15
  %21 = getelementptr inbounds %"class.Json::OurReader", ptr %6, i32 0, i32 5
  %22 = load ptr, ptr %21, align 8
  %23 = load i8, ptr %22, align 1
  %24 = sext i8 %23 to i32
  %25 = icmp eq i32 %24, 47
  br i1 %25, label %26, label %27

26:                                               ; preds = %20
  br label %34

27:                                               ; preds = %20, %15
  %28 = load i8, ptr %5, align 1
  %29 = sext i8 %28 to i32
  %30 = icmp eq i32 %29, 10
  br i1 %30, label %31, label %33

31:                                               ; preds = %27
  %32 = load ptr, ptr %4, align 8
  store i8 1, ptr %32, align 1
  br label %33

33:                                               ; preds = %31, %27
  br label %8, !llvm.loop !41

34:                                               ; preds = %26, %8
  %35 = call noundef signext i8 @_ZN4Json9OurReader11getNextCharEv(ptr noundef nonnull align 8 dereferenceable(297) %6)
  %36 = sext i8 %35 to i32
  %37 = icmp eq i32 %36, 47
  ret i1 %37
}

; Function Attrs: mustprogress nounwind uwtable
define dso_local noundef signext i8 @_ZN4Json9OurReader11getNextCharEv(ptr noundef nonnull align 8 dereferenceable(297) %0) #4 align 2 {
  %2 = alloca i8, align 1
  %3 = alloca ptr, align 8
  store ptr %0, ptr %3, align 8
  %4 = load ptr, ptr %3, align 8
  %5 = getelementptr inbounds %"class.Json::OurReader", ptr %4, i32 0, i32 5
  %6 = load ptr, ptr %5, align 8
  %7 = getelementptr inbounds %"class.Json::OurReader", ptr %4, i32 0, i32 4
  %8 = load ptr, ptr %7, align 8
  %9 = icmp eq ptr %6, %8
  br i1 %9, label %10, label %11

10:                                               ; preds = %1
  store i8 0, ptr %2, align 1
  br label %16

11:                                               ; preds = %1
  %12 = getelementptr inbounds %"class.Json::OurReader", ptr %4, i32 0, i32 5
  %13 = load ptr, ptr %12, align 8
  %14 = getelementptr inbounds i8, ptr %13, i32 1
  store ptr %14, ptr %12, align 8
  %15 = load i8, ptr %13, align 1
  store i8 %15, ptr %2, align 1
  br label %16

16:                                               ; preds = %11, %10
  %17 = load i8, ptr %2, align 1
  ret i8 %17
}

; Function Attrs: mustprogress uwtable
define dso_local noundef zeroext i1 @_ZN4Json9OurReader11readCommentEv(ptr noundef nonnull align 8 dereferenceable(297) %0) #5 align 2 {
  %2 = alloca i1, align 1
  %3 = alloca ptr, align 8
  %4 = alloca ptr, align 8
  %5 = alloca i8, align 1
  %6 = alloca i8, align 1
  %7 = alloca i8, align 1
  %8 = alloca i8, align 1
  %9 = alloca i8, align 1
  %10 = alloca i32, align 4
  store ptr %0, ptr %3, align 8
  %11 = load ptr, ptr %3, align 8
  %12 = getelementptr inbounds %"class.Json::OurReader", ptr %11, i32 0, i32 5
  %13 = load ptr, ptr %12, align 8
  %14 = getelementptr inbounds i8, ptr %13, i64 -1
  store ptr %14, ptr %4, align 8
  %15 = call noundef signext i8 @_ZN4Json9OurReader11getNextCharEv(ptr noundef nonnull align 8 dereferenceable(297) %11)
  store i8 %15, ptr %5, align 1
  store i8 0, ptr %6, align 1
  store i8 0, ptr %7, align 1
  %16 = load i8, ptr %5, align 1
  %17 = sext i8 %16 to i32
  %18 = icmp eq i32 %17, 42
  %19 = zext i1 %18 to i8
  store i8 %19, ptr %8, align 1
  %20 = load i8, ptr %5, align 1
  %21 = sext i8 %20 to i32
  %22 = icmp eq i32 %21, 47
  %23 = zext i1 %22 to i8
  store i8 %23, ptr %9, align 1
  %24 = load i8, ptr %8, align 1
  %25 = trunc i8 %24 to i1
  br i1 %25, label %26, label %29

26:                                               ; preds = %1
  %27 = call noundef zeroext i1 @_ZN4Json9OurReader17readCStyleCommentEPb(ptr noundef nonnull align 8 dereferenceable(297) %11, ptr noundef %7)
  %28 = zext i1 %27 to i8
  store i8 %28, ptr %6, align 1
  br label %36

29:                                               ; preds = %1
  %30 = load i8, ptr %9, align 1
  %31 = trunc i8 %30 to i1
  br i1 %31, label %32, label %35

32:                                               ; preds = %29
  %33 = call noundef zeroext i1 @_ZN4Json9OurReader19readCppStyleCommentEv(ptr noundef nonnull align 8 dereferenceable(297) %11)
  %34 = zext i1 %33 to i8
  store i8 %34, ptr %6, align 1
  br label %35

35:                                               ; preds = %32, %29
  br label %36

36:                                               ; preds = %35, %26
  %37 = load i8, ptr %6, align 1
  %38 = trunc i8 %37 to i1
  br i1 %38, label %40, label %39

39:                                               ; preds = %36
  store i1 false, ptr %2, align 1
  br label %73

40:                                               ; preds = %36
  %41 = getelementptr inbounds %"class.Json::OurReader", ptr %11, i32 0, i32 12
  %42 = load i8, ptr %41, align 8
  %43 = trunc i8 %42 to i1
  br i1 %43, label %44, label %72

44:                                               ; preds = %40
  store i32 0, ptr %10, align 4
  %45 = getelementptr inbounds %"class.Json::OurReader", ptr %11, i32 0, i32 8
  %46 = load i8, ptr %45, align 8
  %47 = trunc i8 %46 to i1
  br i1 %47, label %67, label %48

48:                                               ; preds = %44
  %49 = getelementptr inbounds %"class.Json::OurReader", ptr %11, i32 0, i32 6
  %50 = load ptr, ptr %49, align 8
  %51 = icmp ne ptr %50, null
  br i1 %51, label %52, label %66

52:                                               ; preds = %48
  %53 = getelementptr inbounds %"class.Json::OurReader", ptr %11, i32 0, i32 6
  %54 = load ptr, ptr %53, align 8
  %55 = load ptr, ptr %4, align 8
  %56 = call noundef zeroext i1 @_ZN4Json9OurReader15containsNewLineEPKcS2_(ptr noundef %54, ptr noundef %55)
  br i1 %56, label %66, label %57

57:                                               ; preds = %52
  %58 = load i8, ptr %9, align 1
  %59 = trunc i8 %58 to i1
  br i1 %59, label %63, label %60

60:                                               ; preds = %57
  %61 = load i8, ptr %7, align 1
  %62 = trunc i8 %61 to i1
  br i1 %62, label %65, label %63

63:                                               ; preds = %60, %57
  store i32 1, ptr %10, align 4
  %64 = getelementptr inbounds %"class.Json::OurReader", ptr %11, i32 0, i32 8
  store i8 1, ptr %64, align 8
  br label %65

65:                                               ; preds = %63, %60
  br label %66

66:                                               ; preds = %65, %52, %48
  br label %67

67:                                               ; preds = %66, %44
  %68 = load ptr, ptr %4, align 8
  %69 = getelementptr inbounds %"class.Json::OurReader", ptr %11, i32 0, i32 5
  %70 = load ptr, ptr %69, align 8
  %71 = load i32, ptr %10, align 4
  call void @_ZN4Json9OurReader10addCommentEPKcS2_NS_16CommentPlacementE(ptr noundef nonnull align 8 dereferenceable(297) %11, ptr noundef %68, ptr noundef %70, i32 noundef %71)
  br label %72

72:                                               ; preds = %67, %40
  store i1 true, ptr %2, align 1
  br label %73

73:                                               ; preds = %72, %39
  %74 = load i1, ptr %2, align 1
  ret i1 %74
}