; Function Attrs: mustprogress uwtable
define dso_local noundef zeroext i1 @_ZN4Json9OurReader11readCommentEv(ptr noundef nonnull align 8 dereferenceable(297) %0) local_unnamed_addr #6 align 2 {
  %2 = getelementptr inbounds i8, ptr %0, i64 208
  %3 = load ptr, ptr %2, align 8
  %4 = getelementptr inbounds i8, ptr %3, i64 -1
  %5 = getelementptr inbounds i8, ptr %0, i64 200
  %6 = load ptr, ptr %5, align 8
  %7 = icmp eq ptr %3, %6
  br i1 %7, label %_ZN4Json9OurReader17readCStyleCommentEPb.exit.thread25, label %_ZN4Json9OurReader11getNextCharEv.exit

_ZN4Json9OurReader11getNextCharEv.exit:           ; preds = %1
  %8 = getelementptr inbounds i8, ptr %3, i64 1
  store ptr %8, ptr %2, align 8
  %9 = load i8, ptr %3, align 1
  %10 = icmp eq i8 %9, 42
  %11 = icmp eq i8 %9, 47
  br i1 %10, label %12, label %26

12:                                               ; preds = %_ZN4Json9OurReader11getNextCharEv.exit
  %13 = getelementptr inbounds i8, ptr %3, i64 2
  %14 = icmp ult ptr %13, %6
  br i1 %14, label %_ZN4Json9OurReader11getNextCharEv.exit.i, label %._crit_edge.i

_ZN4Json9OurReader11getNextCharEv.exit.i:         ; preds = %12, %_ZN4Json9OurReader11getNextCharEv.exit.thread.i
  %.017 = phi i8 [ %.1, %_ZN4Json9OurReader11getNextCharEv.exit.thread.i ], [ 0, %12 ]
  %15 = phi ptr [ %22, %_ZN4Json9OurReader11getNextCharEv.exit.thread.i ], [ %13, %12 ]
  %16 = phi ptr [ %15, %_ZN4Json9OurReader11getNextCharEv.exit.thread.i ], [ %8, %12 ]
  store ptr %15, ptr %2, align 8
  %17 = load i8, ptr %16, align 1
  switch i8 %17, label %_ZN4Json9OurReader11getNextCharEv.exit.thread.i [
    i8 42, label %18
    i8 10, label %21
  ]

18:                                               ; preds = %_ZN4Json9OurReader11getNextCharEv.exit.i
  %19 = load i8, ptr %15, align 1
  %20 = icmp eq i8 %19, 47
  br i1 %20, label %._crit_edge.i, label %_ZN4Json9OurReader11getNextCharEv.exit.thread.i

21:                                               ; preds = %_ZN4Json9OurReader11getNextCharEv.exit.i
  br label %_ZN4Json9OurReader11getNextCharEv.exit.thread.i

_ZN4Json9OurReader11getNextCharEv.exit.thread.i:  ; preds = %21, %18, %_ZN4Json9OurReader11getNextCharEv.exit.i
  %.1 = phi i8 [ %.017, %_ZN4Json9OurReader11getNextCharEv.exit.i ], [ 1, %21 ], [ %.017, %18 ]
  %22 = getelementptr inbounds i8, ptr %15, i64 1
  %23 = icmp ult ptr %22, %6
  br i1 %23, label %_ZN4Json9OurReader11getNextCharEv.exit.i, label %._crit_edge.i, !llvm.loop !298

._crit_edge.i:                                    ; preds = %_ZN4Json9OurReader11getNextCharEv.exit.thread.i, %18, %12
  %.2 = phi i8 [ 0, %12 ], [ %.017, %18 ], [ %.1, %_ZN4Json9OurReader11getNextCharEv.exit.thread.i ]
  %24 = phi ptr [ %8, %12 ], [ %15, %18 ], [ %15, %_ZN4Json9OurReader11getNextCharEv.exit.thread.i ]
  %25 = icmp eq ptr %24, %6
  br i1 %25, label %_ZN4Json9OurReader17readCStyleCommentEPb.exit.thread25, label %_ZN4Json9OurReader17readCStyleCommentEPb.exit

26:                                               ; preds = %_ZN4Json9OurReader11getNextCharEv.exit
  br i1 %11, label %.preheader, label %_ZN4Json9OurReader17readCStyleCommentEPb.exit.thread25

.preheader:                                       ; preds = %26, %_ZN4Json9OurReader11getNextCharEv.exit.i16
  %27 = phi ptr [ %28, %_ZN4Json9OurReader11getNextCharEv.exit.i16 ], [ %8, %26 ]
  %.not.i = icmp eq ptr %27, %6
  br i1 %.not.i, label %_ZN4Json9OurReader17readCStyleCommentEPb.exit.thread, label %_ZN4Json9OurReader11getNextCharEv.exit.i16

_ZN4Json9OurReader11getNextCharEv.exit.i16:       ; preds = %.preheader
  %28 = getelementptr inbounds i8, ptr %27, i64 1
  store ptr %28, ptr %2, align 8
  %29 = load i8, ptr %27, align 1
  switch i8 %29, label %.preheader [
    i8 10, label %_ZN4Json9OurReader17readCStyleCommentEPb.exit.thread
    i8 13, label %30
  ]

30:                                               ; preds = %_ZN4Json9OurReader11getNextCharEv.exit.i16
  %.not3.i = icmp eq ptr %28, %6
  br i1 %.not3.i, label %_ZN4Json9OurReader17readCStyleCommentEPb.exit.thread, label %31

31:                                               ; preds = %30
  %32 = load i8, ptr %28, align 1
  %33 = icmp eq i8 %32, 10
  br i1 %33, label %_ZN4Json9OurReader11getNextCharEv.exit5.i, label %_ZN4Json9OurReader17readCStyleCommentEPb.exit.thread

_ZN4Json9OurReader11getNextCharEv.exit5.i:        ; preds = %31
  %34 = getelementptr inbounds i8, ptr %27, i64 2
  store ptr %34, ptr %2, align 8
  br label %_ZN4Json9OurReader17readCStyleCommentEPb.exit.thread

_ZN4Json9OurReader17readCStyleCommentEPb.exit:    ; preds = %._crit_edge.i
  %35 = getelementptr inbounds i8, ptr %24, i64 1
  store ptr %35, ptr %2, align 8
  %36 = load i8, ptr %24, align 1
  %37 = icmp eq i8 %36, 47
  br i1 %37, label %_ZN4Json9OurReader17readCStyleCommentEPb.exit.thread, label %_ZN4Json9OurReader17readCStyleCommentEPb.exit.thread25

_ZN4Json9OurReader17readCStyleCommentEPb.exit.thread: ; preds = %_ZN4Json9OurReader11getNextCharEv.exit.i16, %.preheader, %_ZN4Json9OurReader11getNextCharEv.exit5.i, %31, %30, %_ZN4Json9OurReader17readCStyleCommentEPb.exit
  %38 = phi ptr [ %35, %_ZN4Json9OurReader17readCStyleCommentEPb.exit ], [ %6, %30 ], [ %28, %31 ], [ %34, %_ZN4Json9OurReader11getNextCharEv.exit5.i ], [ %28, %_ZN4Json9OurReader11getNextCharEv.exit.i16 ], [ %6, %.preheader ]
  %.321 = phi i8 [ %.2, %_ZN4Json9OurReader17readCStyleCommentEPb.exit ], [ 0, %30 ], [ 0, %31 ], [ 0, %_ZN4Json9OurReader11getNextCharEv.exit5.i ], [ 0, %.preheader ], [ 0, %_ZN4Json9OurReader11getNextCharEv.exit.i16 ]
  %39 = getelementptr inbounds i8, ptr %0, i64 296
  %40 = load i8, ptr %39, align 8
  %41 = and i8 %40, 1
  %.not = icmp eq i8 %41, 0
  br i1 %.not, label %_ZN4Json9OurReader17readCStyleCommentEPb.exit.thread25, label %42

42:                                               ; preds = %_ZN4Json9OurReader17readCStyleCommentEPb.exit.thread
  %43 = getelementptr inbounds i8, ptr %0, i64 232
  %44 = load i8, ptr %43, align 8
  %45 = and i8 %44, 1
  %.not13 = icmp eq i8 %45, 0
  br i1 %.not13, label %46, label %54

46:                                               ; preds = %42
  %47 = getelementptr inbounds i8, ptr %0, i64 216
  %48 = load ptr, ptr %47, align 8
  %.not14 = icmp eq ptr %48, null
  br i1 %.not14, label %54, label %49

49:                                               ; preds = %46
  %50 = tail call noundef zeroext i1 @_ZN4Json9OurReader15containsNewLineEPKcS2_(ptr noundef nonnull %48, ptr noundef nonnull %4)
  br i1 %50, label %54, label %51

51:                                               ; preds = %49
  %52 = and i8 %.321, 1
  %.not15 = icmp eq i8 %52, 0
  %or.cond = select i1 %11, i1 true, i1 %.not15
  br i1 %or.cond, label %53, label %54

53:                                               ; preds = %51
  store i8 1, ptr %43, align 8
  br label %54

54:                                               ; preds = %51, %46, %49, %53, %42
  %.0 = phi i32 [ 0, %42 ], [ 0, %49 ], [ 1, %53 ], [ 0, %46 ], [ 0, %51 ]
  tail call void @_ZN4Json9OurReader10addCommentEPKcS2_NS_16CommentPlacementE(ptr noundef nonnull align 8 dereferenceable(297) %0, ptr noundef nonnull %4, ptr noundef %38, i32 noundef %.0)
  br label %_ZN4Json9OurReader17readCStyleCommentEPb.exit.thread25

_ZN4Json9OurReader17readCStyleCommentEPb.exit.thread25: ; preds = %1, %._crit_edge.i, %26, %_ZN4Json9OurReader17readCStyleCommentEPb.exit.thread, %54, %_ZN4Json9OurReader17readCStyleCommentEPb.exit
  %.01122 = phi i1 [ true, %_ZN4Json9OurReader17readCStyleCommentEPb.exit.thread ], [ true, %54 ], [ false, %_ZN4Json9OurReader17readCStyleCommentEPb.exit ], [ false, %26 ], [ false, %._crit_edge.i ], [ false, %1 ]
  ret i1 %.01122
}